; Function Attrs: nounwind sspstrong uwtable
define internal void @e1000_mit_timer(ptr noundef initializes((208536, 208537)) %opaque) #0 {
entry:
  %mit_timer_on = getelementptr inbounds nuw i8, ptr %opaque, i64 208536
  store i8 0, ptr %mit_timer_on, align 8
  %arrayidx = getelementptr i8, ptr %opaque, i64 11568
  %0 = load i32, ptr %arrayidx, align 16
  tail call fastcc void @set_interrupt_cause(ptr noundef %opaque, i32 noundef %0)
  ret void
}